; Function Attrs: mustprogress nofree norecurse nosync nounwind willreturn memory(none) uwtable
define zeroext range(i8 0, 2) i8 @l_Lean_Compiler_beqInlineAttributeKind____x40_Lean_Compiler_InlineAttrs___hyg_18_(i8 noundef zeroext %0, i8 noundef zeroext %1) local_unnamed_addr #0 {
  switch i8 %0, label %6 [
    i8 0, label %l_Lean_Compiler_InlineAttributeKind_toCtorIdx.exit
    i8 1, label %3
    i8 2, label %4
    i8 3, label %5
  ]

3:                                                ; preds = %2
  br label %l_Lean_Compiler_InlineAttributeKind_toCtorIdx.exit

4:                                                ; preds = %2
  br label %l_Lean_Compiler_InlineAttributeKind_toCtorIdx.exit

5:                                                ; preds = %2
  br label %l_Lean_Compiler_InlineAttributeKind_toCtorIdx.exit

6:                                                ; preds = %2
  br label %l_Lean_Compiler_InlineAttributeKind_toCtorIdx.exit

l_Lean_Compiler_InlineAttributeKind_toCtorIdx.exit: ; preds = %2, %3, %4, %5, %6
  %.0.i9 = phi ptr [ inttoptr (i64 9 to ptr), %6 ], [ inttoptr (i64 7 to ptr), %5 ], [ inttoptr (i64 5 to ptr), %4 ], [ inttoptr (i64 3 to ptr), %3 ], [ inttoptr (i64 1 to ptr), %2 ]
  switch i8 %1, label %10 [
    i8 0, label %lean_dec.exit
    i8 1, label %7
    i8 2, label %8
    i8 3, label %9
  ]

7:                                                ; preds = %l_Lean_Compiler_InlineAttributeKind_toCtorIdx.exit
  br label %lean_dec.exit

8:                                                ; preds = %l_Lean_Compiler_InlineAttributeKind_toCtorIdx.exit
  br label %lean_dec.exit

9:                                                ; preds = %l_Lean_Compiler_InlineAttributeKind_toCtorIdx.exit
  br label %lean_dec.exit

10:                                               ; preds = %l_Lean_Compiler_InlineAttributeKind_toCtorIdx.exit
  br label %lean_dec.exit

lean_dec.exit:                                    ; preds = %10, %9, %8, %7, %l_Lean_Compiler_InlineAttributeKind_toCtorIdx.exit
  %.0.i10 = phi ptr [ inttoptr (i64 9 to ptr), %10 ], [ inttoptr (i64 7 to ptr), %9 ], [ inttoptr (i64 5 to ptr), %8 ], [ inttoptr (i64 3 to ptr), %7 ], [ inttoptr (i64 1 to ptr), %l_Lean_Compiler_InlineAttributeKind_toCtorIdx.exit ]
  %11 = icmp eq ptr %.0.i9, %.0.i10
  %12 = zext i1 %11 to i8
  ret i8 %12
}